; Function Attrs: nounwind uwtable
define ptr @Java_java_lang_ClassLoader_findLoadedClass0(ptr noundef %0, ptr noundef %1, ptr noundef %2) local_unnamed_addr #0 {
  %4 = icmp eq ptr %2, null
  br i1 %4, label %7, label %5

5:                                                ; preds = %3
  %6 = tail call ptr @JVM_FindLoadedClass(ptr noundef %0, ptr noundef %1, ptr noundef nonnull %2) #4
  br label %7

7:                                                ; preds = %3, %5
  %.0 = phi ptr [ %6, %5 ], [ null, %3 ]
  ret ptr %.0
}